target datalayout = "e-m:e-p270:32:32-p271:32:32-p272:64:64-i64:64-i128:128-f80:128-n8:16:32:64-S128"
target triple = "x86_64-pc-linux-gnu"

%struct.dsa_area_control = type { %struct.dsa_segment_header, i32, [1024 x i32], [16 x i64], [38 x %struct.dsa_area_pool], i64, i64, i64, i64, i64, i32, i8, i64, i32, %struct.LWLock }
%struct.dsa_segment_header = type { i32, i64, i64, i64, i64, i64, i8 }
%struct.dsa_area_pool = type { %struct.LWLock, [4 x i64] }
%struct.LWLock = type { i16, %struct.pg_atomic_uint32, %struct.proclist_head }
%struct.pg_atomic_uint32 = type { i32 }
%struct.proclist_head = type { i32, i32 }
%struct.dsa_area = type { ptr, ptr, [1024 x %struct.dsa_segment_map], i64, i64 }
%struct.dsa_segment_map = type { ptr, ptr, ptr, ptr, ptr }

@.str = private unnamed_addr constant [40 x i8] c"could not attach to dynamic shared area\00", align 1
@.str.1 = private unnamed_addr constant [6 x i8] c"dsa.c\00", align 1
@CurrentResourceOwner = external global ptr, align 8
@__func__.attach_internal = private unnamed_addr constant [16 x i8] c"attach_internal\00", align 1

; Function Attrs: nounwind uwtable
define internal ptr @attach_internal(ptr noundef %0, ptr noundef %1, i32 noundef %2) #0 {
  %4 = alloca ptr, align 8
  %5 = alloca ptr, align 8
  %6 = alloca i32, align 4
  %7 = alloca ptr, align 8
  %8 = alloca ptr, align 8
  %9 = alloca ptr, align 8
  store ptr %0, ptr %4, align 8
  store ptr %1, ptr %5, align 8
  store i32 %2, ptr %6, align 4
  call void @llvm.lifetime.start.p0(i64 8, ptr %7) #8
  call void @llvm.lifetime.start.p0(i64 8, ptr %8) #8
  call void @llvm.lifetime.start.p0(i64 8, ptr %9) #8
  %10 = load ptr, ptr %4, align 8
  store ptr %10, ptr %7, align 8
  %11 = call ptr @palloc(i64 noundef 40992)
  store ptr %11, ptr %8, align 8
  %12 = load ptr, ptr %7, align 8
  %13 = load ptr, ptr %8, align 8
  %14 = getelementptr inbounds nuw %struct.dsa_area, ptr %13, i32 0, i32 0
  store ptr %12, ptr %14, align 8
  %15 = load ptr, ptr @CurrentResourceOwner, align 8
  %16 = load ptr, ptr %8, align 8
  %17 = getelementptr inbounds nuw %struct.dsa_area, ptr %16, i32 0, i32 1
  store ptr %15, ptr %17, align 8
  %18 = load ptr, ptr %8, align 8
  %19 = getelementptr inbounds nuw %struct.dsa_area, ptr %18, i32 0, i32 2
  %20 = getelementptr inbounds [1024 x %struct.dsa_segment_map], ptr %19, i64 0, i64 0
  call void @llvm.memset.p0.i64(ptr align 8 %20, i8 0, i64 40960, i1 false)
  %21 = load ptr, ptr %8, align 8
  %22 = getelementptr inbounds nuw %struct.dsa_area, ptr %21, i32 0, i32 3
  store i64 0, ptr %22, align 8
  %23 = load ptr, ptr %8, align 8
  %24 = getelementptr inbounds nuw %struct.dsa_area, ptr %23, i32 0, i32 2
  %25 = getelementptr inbounds [1024 x %struct.dsa_segment_map], ptr %24, i64 0, i64 0
  store ptr %25, ptr %9, align 8
  %26 = load ptr, ptr %5, align 8
  %27 = load ptr, ptr %9, align 8
  %28 = getelementptr inbounds nuw %struct.dsa_segment_map, ptr %27, i32 0, i32 0
  store ptr %26, ptr %28, align 8
  %29 = load ptr, ptr %4, align 8
  %30 = load ptr, ptr %9, align 8
  %31 = getelementptr inbounds nuw %struct.dsa_segment_map, ptr %30, i32 0, i32 1
  store ptr %29, ptr %31, align 8
  %32 = load ptr, ptr %9, align 8
  %33 = getelementptr inbounds nuw %struct.dsa_segment_map, ptr %32, i32 0, i32 1
  %34 = load ptr, ptr %33, align 8
  %35 = load ptr, ptr %9, align 8
  %36 = getelementptr inbounds nuw %struct.dsa_segment_map, ptr %35, i32 0, i32 2
  store ptr %34, ptr %36, align 8
  %37 = load ptr, ptr %9, align 8
  %38 = getelementptr inbounds nuw %struct.dsa_segment_map, ptr %37, i32 0, i32 1
  %39 = load ptr, ptr %38, align 8
  %40 = getelementptr inbounds nuw i8, ptr %39, i64 6192
  %41 = load ptr, ptr %9, align 8
  %42 = getelementptr inbounds nuw %struct.dsa_segment_map, ptr %41, i32 0, i32 3
  store ptr %40, ptr %42, align 8
  %43 = load ptr, ptr %9, align 8
  %44 = getelementptr inbounds nuw %struct.dsa_segment_map, ptr %43, i32 0, i32 1
  %45 = load ptr, ptr %44, align 8
  %46 = getelementptr inbounds nuw i8, ptr %45, i64 6192
  %47 = getelementptr inbounds nuw i8, ptr %46, i64 1096
  %48 = load ptr, ptr %9, align 8
  %49 = getelementptr inbounds nuw %struct.dsa_segment_map, ptr %48, i32 0, i32 4
  store ptr %47, ptr %49, align 8
  %50 = load ptr, ptr %8, align 8
  %51 = getelementptr inbounds nuw %struct.dsa_area, ptr %50, i32 0, i32 0
  %52 = load ptr, ptr %51, align 8
  %53 = getelementptr inbounds nuw %struct.dsa_area_control, ptr %52, i32 0, i32 14
  %54 = call zeroext i1 @LWLockAcquire(ptr noundef %53, i32 noundef 0)
  %55 = load ptr, ptr %7, align 8
  %56 = getelementptr inbounds nuw %struct.dsa_area_control, ptr %55, i32 0, i32 10
  %57 = load i32, ptr %56, align 8
  %58 = icmp eq i32 %57, 0
  br i1 %58, label %59, label %71

59:                                               ; preds = %3
  br label %60

60:                                               ; preds = %59
  br i1 true, label %61, label %63

61:                                               ; preds = %60
  %62 = call zeroext i1 @errstart_cold(i32 noundef 21, ptr noundef null) #9
  br i1 %62, label %65, label %68

63:                                               ; preds = %60
  %64 = call zeroext i1 @errstart(i32 noundef 21, ptr noundef null)
  br i1 %64, label %65, label %68

65:                                               ; preds = %63, %61
  %66 = call i32 @errcode(i32 noundef 325)
  %67 = call i32 (ptr, ...) @errmsg(ptr noundef @.str)
  call void @errfinish(ptr noundef @.str.1, i32 noundef 1364, ptr noundef @__func__.attach_internal)
  br label %68

68:                                               ; preds = %65, %63, %61
  unreachable

69:                                               ; No predecessors!
  br label %70

70:                                               ; preds = %69
  br label %71

71:                                               ; preds = %70, %3
  %72 = load ptr, ptr %7, align 8
  %73 = getelementptr inbounds nuw %struct.dsa_area_control, ptr %72, i32 0, i32 10
  %74 = load i32, ptr %73, align 8
  %75 = add i32 %74, 1
  store i32 %75, ptr %73, align 8
  %76 = load ptr, ptr %8, align 8
  %77 = getelementptr inbounds nuw %struct.dsa_area, ptr %76, i32 0, i32 0
  %78 = load ptr, ptr %77, align 8
  %79 = getelementptr inbounds nuw %struct.dsa_area_control, ptr %78, i32 0, i32 12
  %80 = load i64, ptr %79, align 8
  %81 = load ptr, ptr %8, align 8
  %82 = getelementptr inbounds nuw %struct.dsa_area, ptr %81, i32 0, i32 4
  store i64 %80, ptr %82, align 8
  %83 = load ptr, ptr %8, align 8
  %84 = getelementptr inbounds nuw %struct.dsa_area, ptr %83, i32 0, i32 0
  %85 = load ptr, ptr %84, align 8
  %86 = getelementptr inbounds nuw %struct.dsa_area_control, ptr %85, i32 0, i32 14
  call void @LWLockRelease(ptr noundef %86)
  %87 = load ptr, ptr %8, align 8
  call void @llvm.lifetime.end.p0(i64 8, ptr %9) #8
  call void @llvm.lifetime.end.p0(i64 8, ptr %8) #8
  call void @llvm.lifetime.end.p0(i64 8, ptr %7) #8
  ret ptr %87
}