; Function Attrs: nounwind uwtable
define internal fastcc noundef ptr @attach_internal(ptr noundef %0, ptr noundef %1) unnamed_addr #0 {
  %3 = tail call ptr @palloc(i64 noundef 40992) #11
  store ptr %0, ptr %3, align 8
  %4 = load ptr, ptr @CurrentResourceOwner, align 8
  %5 = getelementptr inbounds nuw i8, ptr %3, i64 8
  store ptr %4, ptr %5, align 8
  %6 = getelementptr inbounds nuw i8, ptr %3, i64 16
  %7 = getelementptr inbounds nuw i8, ptr %3, i64 56
  tail call void @llvm.memset.p0.i64(ptr noundef nonnull align 8 dereferenceable(40928) %7, i8 0, i64 40928, i1 false)
  store ptr %1, ptr %6, align 8
  %8 = getelementptr inbounds nuw i8, ptr %3, i64 24
  store ptr %0, ptr %8, align 8
  %9 = getelementptr inbounds nuw i8, ptr %3, i64 32
  store ptr %0, ptr %9, align 8
  %10 = getelementptr inbounds nuw i8, ptr %0, i64 6192
  %11 = getelementptr inbounds nuw i8, ptr %3, i64 40
  store ptr %10, ptr %11, align 8
  %12 = getelementptr inbounds nuw i8, ptr %0, i64 7288
  %13 = getelementptr inbounds nuw i8, ptr %3, i64 48
  store ptr %12, ptr %13, align 8
  %14 = getelementptr inbounds nuw i8, ptr %0, i64 6172
  %15 = tail call zeroext i1 @LWLockAcquire(ptr noundef nonnull %14, i32 noundef 0) #11
  %16 = getelementptr inbounds nuw i8, ptr %0, i64 6152
  %17 = load i32, ptr %16, align 8
  %18 = icmp eq i32 %17, 0
  br i1 %18, label %19, label %23

19:                                               ; preds = %2
  %20 = tail call zeroext i1 @errstart_cold(i32 noundef 21, ptr noundef null) #12
  tail call void @llvm.assume(i1 %20)
  %21 = tail call i32 @errcode(i32 noundef 325) #11
  %22 = tail call i32 (ptr, ...) @errmsg(ptr noundef nonnull @.str) #11
  tail call void @errfinish(ptr noundef nonnull @.str.1, i32 noundef 1364, ptr noundef nonnull @__func__.attach_internal) #11
  unreachable

23:                                               ; preds = %2
  %24 = add i32 %17, 1
  store i32 %24, ptr %16, align 8
  %25 = load ptr, ptr %3, align 8
  %26 = getelementptr inbounds nuw i8, ptr %25, i64 6160
  %27 = load i64, ptr %26, align 8
  %28 = getelementptr inbounds nuw i8, ptr %3, i64 40984
  store i64 %27, ptr %28, align 8
  %29 = getelementptr inbounds nuw i8, ptr %25, i64 6172
  tail call void @LWLockRelease(ptr noundef nonnull %29) #11
  ret ptr %3
}